; Function Attrs: nounwind uwtable
define internal noundef i32 @collect_diff_cb(i64 noundef %0, i64 noundef %1, i64 noundef %2, i64 noundef %3, ptr noundef readonly captures(none) %4) #0 {
  %6 = icmp sgt i64 %1, -1
  br i1 %6, label %7, label %30

7:                                                ; preds = %5
  %8 = load ptr, ptr %4, align 8, !tbaa !192
  %9 = add nsw i64 %1, %0
  %10 = getelementptr inbounds nuw i8, ptr %8, i64 4
  %11 = load i32, ptr %10, align 4, !tbaa !12
  %12 = load i32, ptr %8, align 8, !tbaa !4
  %.not.i.i = icmp ult i32 %11, %12
  br i1 %.not.i.i, label %.range_set_grow.exit_crit_edge.i.i, label %st_mult.exit.i.i.i

.range_set_grow.exit_crit_edge.i.i:               ; preds = %7
  %.phi.trans.insert.i.i = getelementptr inbounds nuw i8, ptr %8, i64 8
  %.pre.i.i = load ptr, ptr %.phi.trans.insert.i.i, align 8, !tbaa !11
  br label %range_set_append.exit

st_mult.exit.i.i.i:                               ; preds = %7
  %13 = zext i32 %11 to i64
  %14 = add nuw nsw i64 %13, 1
  %15 = mul i32 %12, 3
  %16 = add i32 %15, 48
  %17 = lshr i32 %16, 1
  %18 = zext nneg i32 %17 to i64
  %storemerge14.i.i.i = tail call i64 @llvm.umax.i64(i64 %14, i64 %18)
  %storemerge.i.i.i = trunc i64 %storemerge14.i.i.i to i32
  store i32 %storemerge.i.i.i, ptr %8, align 8, !tbaa !4
  %19 = getelementptr inbounds nuw i8, ptr %8, i64 8
  %20 = load ptr, ptr %19, align 8, !tbaa !11
  %21 = shl nuw nsw i64 %storemerge14.i.i.i, 4
  %22 = and i64 %21, 68719476720
  %23 = tail call ptr @xrealloc(ptr noundef %20, i64 noundef %22) #16
  store ptr %23, ptr %19, align 8, !tbaa !11
  %.pre7.i.i = load i32, ptr %10, align 4, !tbaa !12
  br label %range_set_append.exit

range_set_append.exit:                            ; preds = %.range_set_grow.exit_crit_edge.i.i, %st_mult.exit.i.i.i
  %24 = phi i32 [ %11, %.range_set_grow.exit_crit_edge.i.i ], [ %.pre7.i.i, %st_mult.exit.i.i.i ]
  %25 = phi ptr [ %.pre.i.i, %.range_set_grow.exit_crit_edge.i.i ], [ %23, %st_mult.exit.i.i.i ]
  %26 = zext i32 %24 to i64
  %27 = getelementptr inbounds nuw %struct.range, ptr %25, i64 %26
  store i64 %0, ptr %27, align 8, !tbaa !13
  %28 = getelementptr inbounds nuw %struct.range, ptr %25, i64 %26, i32 1
  store i64 %9, ptr %28, align 8, !tbaa !16
  %29 = add i32 %24, 1
  store i32 %29, ptr %10, align 4, !tbaa !12
  br label %30

30:                                               ; preds = %range_set_append.exit, %5
  %31 = icmp sgt i64 %3, -1
  br i1 %31, label %32, label %56

32:                                               ; preds = %30
  %33 = load ptr, ptr %4, align 8, !tbaa !192
  %34 = getelementptr inbounds nuw i8, ptr %33, i64 16
  %35 = add nsw i64 %3, %2
  %36 = getelementptr inbounds nuw i8, ptr %33, i64 20
  %37 = load i32, ptr %36, align 4, !tbaa !12
  %38 = load i32, ptr %34, align 8, !tbaa !4
  %.not.i.i11 = icmp ult i32 %37, %38
  br i1 %.not.i.i11, label %.range_set_grow.exit_crit_edge.i.i16, label %st_mult.exit.i.i.i12

.range_set_grow.exit_crit_edge.i.i16:             ; preds = %32
  %.phi.trans.insert.i.i17 = getelementptr inbounds nuw i8, ptr %33, i64 24
  %.pre.i.i18 = load ptr, ptr %.phi.trans.insert.i.i17, align 8, !tbaa !11
  br label %range_set_append.exit19

st_mult.exit.i.i.i12:                             ; preds = %32
  %39 = zext i32 %37 to i64
  %40 = add nuw nsw i64 %39, 1
  %41 = mul i32 %38, 3
  %42 = add i32 %41, 48
  %43 = lshr i32 %42, 1
  %44 = zext nneg i32 %43 to i64
  %storemerge14.i.i.i13 = tail call i64 @llvm.umax.i64(i64 %40, i64 %44)
  %storemerge.i.i.i14 = trunc i64 %storemerge14.i.i.i13 to i32
  store i32 %storemerge.i.i.i14, ptr %34, align 8, !tbaa !4
  %45 = getelementptr inbounds nuw i8, ptr %33, i64 24
  %46 = load ptr, ptr %45, align 8, !tbaa !11
  %47 = shl nuw nsw i64 %storemerge14.i.i.i13, 4
  %48 = and i64 %47, 68719476720
  %49 = tail call ptr @xrealloc(ptr noundef %46, i64 noundef %48) #16
  store ptr %49, ptr %45, align 8, !tbaa !11
  %.pre7.i.i15 = load i32, ptr %36, align 4, !tbaa !12
  br label %range_set_append.exit19

range_set_append.exit19:                          ; preds = %.range_set_grow.exit_crit_edge.i.i16, %st_mult.exit.i.i.i12
  %50 = phi i32 [ %37, %.range_set_grow.exit_crit_edge.i.i16 ], [ %.pre7.i.i15, %st_mult.exit.i.i.i12 ]
  %51 = phi ptr [ %.pre.i.i18, %.range_set_grow.exit_crit_edge.i.i16 ], [ %49, %st_mult.exit.i.i.i12 ]
  %52 = zext i32 %50 to i64
  %53 = getelementptr inbounds nuw %struct.range, ptr %51, i64 %52
  store i64 %2, ptr %53, align 8, !tbaa !13
  %54 = getelementptr inbounds nuw %struct.range, ptr %51, i64 %52, i32 1
  store i64 %35, ptr %54, align 8, !tbaa !16
  %55 = add i32 %50, 1
  store i32 %55, ptr %36, align 4, !tbaa !12
  br label %56

56:                                               ; preds = %range_set_append.exit19, %30
  ret i32 0
}